target datalayout = "e-m:e-p270:32:32-p271:32:32-p272:64:64-i64:64-i128:128-f80:128-n8:16:32:64-S128"
target triple = "x86_64-pc-linux-gnu"

%struct._object = type { %union.anon, ptr }
%union.anon = type { i64 }
%struct.HMACobject = type { %struct._object, ptr, i8, %struct.PyMutex }
%struct.PyMutex = type { i8 }

@PyExc_ValueError = external global ptr, align 8

; Function Attrs: nounwind uwtable
define internal i32 @_hmac_digest_size(ptr noundef %0) #0 {
  %2 = alloca ptr, align 8
  %3 = alloca i32, align 4
  store ptr %0, ptr %2, align 8, !tbaa !3
  call void @llvm.lifetime.start.p0(i64 4, ptr %3) #9
  %4 = load ptr, ptr %2, align 8, !tbaa !3
  %5 = getelementptr inbounds nuw %struct.HMACobject, ptr %4, i32 0, i32 1
  %6 = load ptr, ptr %5, align 8, !tbaa !7
  %7 = call ptr @HMAC_CTX_get_md(ptr noundef %6)
  %8 = call i32 @EVP_MD_get_size(ptr noundef %7)
  store i32 %8, ptr %3, align 4, !tbaa !19
  %9 = load i32, ptr %3, align 4, !tbaa !19
  call void @llvm.lifetime.end.p0(i64 4, ptr %3) #9
  ret i32 %9
}

; Function Attrs: nounwind uwtable
define internal ptr @_hashlib_hmac_get_digest_size(ptr noundef %0, ptr noundef %1) #0 {
  %3 = alloca ptr, align 8
  %4 = alloca ptr, align 8
  %5 = alloca ptr, align 8
  %6 = alloca i32, align 4
  %7 = alloca i32, align 4
  store ptr %0, ptr %4, align 8, !tbaa !3
  store ptr %1, ptr %5, align 8, !tbaa !3
  call void @llvm.lifetime.start.p0(i64 4, ptr %6) #9
  %8 = load ptr, ptr %4, align 8, !tbaa !3
  %9 = call i32 @_hmac_digest_size(ptr noundef %8)
  store i32 %9, ptr %6, align 4, !tbaa !19
  %10 = load i32, ptr %6, align 4, !tbaa !19
  %11 = icmp eq i32 %10, 0
  br i1 %11, label %12, label %15

12:                                               ; preds = %2
  %13 = load ptr, ptr @PyExc_ValueError, align 8, !tbaa !14
  %14 = call ptr (ptr, ptr, ...) @_setException(ptr noundef %13, ptr noundef null)
  store ptr %14, ptr %3, align 8
  store i32 1, ptr %7, align 4
  br label %19

15:                                               ; preds = %2
  %16 = load i32, ptr %6, align 4, !tbaa !19
  %17 = zext i32 %16 to i64
  %18 = call ptr @PyLong_FromLong(i64 noundef %17)
  store ptr %18, ptr %3, align 8
  store i32 1, ptr %7, align 4
  br label %19

19:                                               ; preds = %15, %12
  call void @llvm.lifetime.end.p0(i64 4, ptr %6) #9
  %20 = load ptr, ptr %3, align 8
  ret ptr %20
}