; Function Attrs: nounwind uwtable
define internal ptr @_hashlib_hmac_get_digest_size(ptr noundef readonly captures(none) %0, ptr readnone captures(none) %1) #0 {
  %3 = getelementptr i8, ptr %0, i64 16
  %.val = load ptr, ptr %3, align 8, !tbaa !3
  %4 = tail call ptr @HMAC_CTX_get_md(ptr noundef %.val) #9
  %5 = tail call i32 @EVP_MD_get_size(ptr noundef %4) #9
  %6 = icmp eq i32 %5, 0
  br i1 %6, label %7, label %9

7:                                                ; preds = %2
  %8 = load ptr, ptr @PyExc_ValueError, align 8, !tbaa !23
  tail call void (ptr, ptr, ...) @_setException(ptr noundef %8, ptr noundef null)
  br label %12

9:                                                ; preds = %2
  %10 = zext i32 %5 to i64
  %11 = tail call ptr @PyLong_FromLong(i64 noundef %10) #9
  br label %12

12:                                               ; preds = %9, %7
  %.0 = phi ptr [ null, %7 ], [ %11, %9 ]
  ret ptr %.0
}